target datalayout = "e-m:e-p270:32:32-p271:32:32-p272:64:64-i64:64-i128:128-f80:128-n8:16:32:64-S128"
target triple = "x86_64-pc-linux-gnu"

%struct.WebPDecBuffer = type { i32, i32, i32, i32, %union.anon, [4 x i32], ptr }
%union.anon = type { %struct.WebPYUVABuffer }
%struct.WebPYUVABuffer = type { ptr, ptr, ptr, ptr, i32, i32, i32, i32, i64, i64, i64, i64 }
%struct.WebPDecoderOptions = type { i32, i32, i32, i32, i32, i32, i32, i32, i32, i32, i32, i32, i32, i32, [5 x i32] }
%struct.WebPBitstreamFeatures = type { i32, i32, i32, i32, i32, [5 x i32] }
%struct.WebPDecoderConfig = type { %struct.WebPBitstreamFeatures, %struct.WebPDecBuffer, %struct.WebPDecoderOptions }

; Function Attrs: inlinehint nounwind uwtable
define internal i32 @WebPInitDecBuffer(ptr noundef %0) #3 {
  %2 = alloca ptr, align 8
  store ptr %0, ptr %2, align 8, !tbaa !36
  %3 = load ptr, ptr %2, align 8, !tbaa !36
  %4 = call i32 @WebPInitDecBufferInternal(ptr noundef %3, i32 noundef 528)
  ret i32 %4
}

; Function Attrs: nounwind uwtable
define internal void @DefaultFeatures(ptr noundef %0) #0 {
  %2 = alloca ptr, align 8
  store ptr %0, ptr %2, align 8, !tbaa !90
  %3 = load ptr, ptr %2, align 8, !tbaa !90
  call void @llvm.memset.p0.i64(ptr align 4 %3, i8 0, i64 40, i1 false)
  ret void
}

; Function Attrs: nounwind uwtable
define i32 @WebPInitDecoderConfigInternal(ptr noundef %0, i32 noundef %1) #0 {
  %3 = alloca i32, align 4
  %4 = alloca ptr, align 8
  %5 = alloca i32, align 4
  store ptr %0, ptr %4, align 8, !tbaa !92
  store i32 %1, ptr %5, align 4, !tbaa !7
  %6 = load i32, ptr %5, align 4, !tbaa !7
  %7 = ashr i32 %6, 8
  %8 = icmp ne i32 %7, 2
  br i1 %8, label %9, label %10

9:                                                ; preds = %2
  store i32 0, ptr %3, align 4
  br label %24

10:                                               ; preds = %2
  %11 = load ptr, ptr %4, align 8, !tbaa !92
  %12 = icmp eq ptr %11, null
  br i1 %12, label %13, label %14

13:                                               ; preds = %10
  store i32 0, ptr %3, align 4
  br label %24

14:                                               ; preds = %10
  %15 = load ptr, ptr %4, align 8, !tbaa !92
  call void @llvm.memset.p0.i64(ptr align 8 %15, i8 0, i64 240, i1 false)
  %16 = load ptr, ptr %4, align 8, !tbaa !92
  %17 = getelementptr inbounds nuw %struct.WebPDecoderConfig, ptr %16, i32 0, i32 0
  call void @DefaultFeatures(ptr noundef %17)
  %18 = load ptr, ptr %4, align 8, !tbaa !92
  %19 = getelementptr inbounds nuw %struct.WebPDecoderConfig, ptr %18, i32 0, i32 1
  %20 = call i32 @WebPInitDecBuffer(ptr noundef %19)
  %21 = icmp ne i32 %20, 0
  br i1 %21, label %23, label %22

22:                                               ; preds = %14
  store i32 0, ptr %3, align 4
  br label %24

23:                                               ; preds = %14
  store i32 1, ptr %3, align 4
  br label %24

24:                                               ; preds = %23, %22, %13, %9
  %25 = load i32, ptr %3, align 4
  ret i32 %25
}