; Function Attrs: nounwind uwtable
define range(i32 0, 2) i32 @WebPInitDecoderConfigInternal(ptr noundef %0, i32 noundef %1) local_unnamed_addr #0 {
  %.mask = and i32 %1, -256
  %.not = icmp ne i32 %.mask, 512
  %3 = icmp eq ptr %0, null
  %or.cond = or i1 %3, %.not
  br i1 %or.cond, label %7, label %4

4:                                                ; preds = %2
  %5 = getelementptr inbounds nuw i8, ptr %0, i64 40
  tail call void @llvm.memset.p0.i64(ptr noundef nonnull align 4 dereferenceable(240) %0, i8 0, i64 240, i1 false)
  %6 = tail call i32 @WebPInitDecBufferInternal(ptr noundef nonnull %5, i32 noundef 528) #10
  %.not6 = icmp ne i32 %6, 0
  %. = zext i1 %.not6 to i32
  br label %7

7:                                                ; preds = %4, %2
  %.0 = phi i32 [ 0, %2 ], [ %., %4 ]
  ret i32 %.0
}